(dp1
S'CYS'
p2
(dp3
S'TGC'
p4
(lp5
S'59.10'
p6
aS'61.15'
p7
aS'44.29'
p8
asS'TGT'
p9
(lp10
S'40.90'
p11
aS'38.85'
p12
aS'55.71'
p13
assS'ASP'
p14
(dp15
S'GAT'
p16
(lp17
S'62.83'
p18
aS'46.05'
p19
aS'70.47'
p20
asS'GAC'
p21
(lp22
S'37.17'
p23
aS'53.95'
p24
aS'29.53'
p25
assS'SER'
p26
(dp27
S'TCT'
p28
(lp29
S'13.26'
p30
aS'32.41'
p31
aS'19.63'
p32
asS'AGC'
p33
(lp34
S'30.04'
p35
aS'24.33'
p36
aS'17.61'
p37
asS'TCG'
p38
(lp39
S'16.88'
p40
aS'7.39'
p41
aS'10.60'
p42
asS'AGT'
p43
(lp44
S'13.96'
p45
aS'4.52'
p46
aS'18.73'
p47
asS'TCC'
p48
(lp49
S'15.02'
p50
aS'26.56'
p51
aS'11.34'
p52
asS'TCA'
p53
(lp54
S'10.83'
p55
aS'4.79'
p56
aS'22.09'
p57
assS'GLN'
p58
(dp59
S'CAA'
p60
(lp61
S'33.40'
p62
aS'18.65'
p63
aS'37.06'
p64
asS'CAG'
p65
(lp66
S'66.60'
p67
aS'81.35'
p68
aS'62.94'
p69
assS'LYS'
p70
(dp71
S'AAG'
p72
(lp73
S'24.56'
p74
aS'21.45'
p75
aS'27.79'
p76
asS'AAA'
p77
(lp78
S'75.44'
p79
aS'78.55'
p80
aS'72.21'
p81
assS'ILE'
p82
(dp83
S'ATT'
p84
(lp85
S'51.20'
p86
aS'33.49'
p87
aS'47.57'
p88
asS'ATC'
p89
(lp90
S'44.37'
p91
aS'65.94'
p92
aS'26.65'
p93
asS'ATA'
p94
(lp95
S'4.43'
p96
aS'0.57'
p97
aS'25.78'
p98
assS'PRO'
p99
(dp100
S'CCT'
p101
(lp102
S'13.71'
p103
aS'11.23'
p104
aS'28.30'
p105
asS'CCG'
p106
(lp107
S'56.47'
p108
aS'71.89'
p109
aS'23.94'
p110
asS'CCA'
p111
(lp112
S'18.63'
p113
aS'15.25'
p114
aS'31.50'
p115
asS'CCC'
p116
(lp117
S'11.19'
p118
aS'1.63'
p119
aS'16.26'
p120
assS'THR'
p121
(dp122
S'ACC'
p123
(lp124
S'46.83'
p125
aS'53.60'
p126
aS'24.45'
p127
asS'ACA'
p128
(lp129
S'10.52'
p130
aS'4.67'
p131
aS'27.93'
p132
asS'ACG'
p133
(lp134
S'27.81'
p135
aS'12.65'
p136
aS'20.80'
p137
asS'ACT'
p138
(lp139
S'14.85'
p140
aS'29.08'
p141
aS'26.83'
p142
assS'PHE'
p143
(dp144
S'TTC'
p145
(lp146
S'44.91'
p147
aS'70.92'
p148
aS'32.86'
p149
asS'TTT'
p150
(lp151
S'55.09'
p152
aS'29.08'
p153
aS'67.14'
p154
assS'ALA'
p155
(dp156
S'GCA'
p157
(lp158
S'19.63'
p159
aS'24.01'
p160
aS'31.27'
p161
asS'GCC'
p162
(lp163
S'27.62'
p164
aS'16.14'
p165
aS'23.67'
p166
asS'GCT'
p167
(lp168
S'14.52'
p169
aS'27.54'
p170
aS'22.86'
p171
asS'GCG'
p172
(lp173
S'38.23'
p174
aS'32.30'
p175
aS'22.19'
p176
assS'GLY'
p177
(dp178
S'GGT'
p179
(lp180
S'32.91'
p181
aS'50.84'
p182
aS'31.79'
p183
asS'GGG'
p184
(lp185
S'14.74'
p186
aS'4.36'
p187
aS'18.95'
p188
asS'GGA'
p189
(lp190
S'9.19'
p191
aS'1.97'
p192
aS'24.75'
p193
asS'GGC'
p194
(lp195
S'43.17'
p196
aS'42.83'
p197
aS'24.51'
p198
assS'HIS'
p199
(dp200
S'CAC'
p201
(lp202
S'43.20'
p203
aS'70.23'
p204
aS'38.31'
p205
asS'CAT'
p206
(lp207
S'56.80'
p208
aS'29.77'
p209
aS'61.69'
p210
assS'GLU'
p211
(dp212
S'GAG'
p213
(lp214
S'31.67'
p215
aS'24.65'
p216
aS'33.75'
p217
asS'GAA'
p218
(lp219
S'68.33'
p220
aS'75.35'
p221
aS'66.25'
p222
assS'LEU'
p223
(dp224
S'CTT'
p225
(lp226
S'9.70'
p227
aS'5.56'
p228
aS'19.00'
p229
asS'CTG'
p230
(lp231
S'52.79'
p232
aS'76.67'
p233
aS'29.99'
p234
asS'CTA'
p235
(lp236
S'3.09'
p237
aS'0.83'
p238
aS'6.81'
p239
asS'CTC'
p240
(lp241
S'10.40'
p242
aS'8.03'
p243
aS'9.04'
p244
asS'TTA'
p245
(lp246
S'10.99'
p247
aS'3.44'
p248
aS'20.09'
p249
asS'TTG'
p250
(lp251
S'13.02'
p252
aS'5.47'
p253
aS'15.05'
p254
assS'ARG'
p255
(dp256
S'CGA'
p257
(lp258
S'5.52'
p259
aS'1.07'
p260
aS'12.80'
p261
asS'CGC'
p262
(lp263
S'42.23'
p264
aS'32.97'
p265
aS'21.94'
p266
asS'AGA'
p267
(lp268
S'1.75'
p269
aS'0.62'
p270
aS'15.63'
p271
asS'AGG'
p272
(lp273
S'1.54'
p274
aS'0.29'
p275
aS'9.96'
p276
asS'CGG'
p277
(lp278
S'8.97'
p279
aS'0.80'
p280
aS'13.62'
p281
asS'CGT'
p282
(lp283
S'38.99'
p284
aS'64.25'
p285
aS'26.05'
p286
assS'TRP'
p287
(dp288
S'TGG'
p289
(lp290
S'100.0'
p291
aS'100.0'
p292
aS'100.0'
p293
assS'TER'
p294
(dp295
S'TAG'
p296
(lp297
S'7.36'
p298
aS'2.44'
p299
aS'\xa0'
asS'TGA'
p300
(lp301
S'29.21'
p302
aS'2.44'
p303
aS'\xa0'
asS'TAA'
p304
(lp305
S'63.42'
p306
aS'95.12'
p307
aS'\xa0'
assS'VAL'
p308
(dp309
S'GTA'
p310
(lp311
S'14.86'
p312
aS'19.97'
p313
aS'21.78'
p314
asS'GTC'
p315
(lp316
S'22.48'
p317
aS'13.45'
p318
aS'18.95'
p319
asS'GTT'
p320
(lp321
S'23.74'
p322
aS'39.77'
p323
aS'34.33'
p324
asS'GTG'
p325
(lp326
S'38.92'
p327
aS'26.81'
p328
aS'24.94'
p329
assS'ASN'
p330
(dp331
S'AAT'
p332
(lp333
S'40.87'
p334
aS'17.25'
p335
aS'64.06'
p336
asS'AAC'
p337
(lp338
S'59.13'
p339
aS'82.75'
p340
aS'35.94'
p341
assS'TYR'
p342
(dp343
S'TAT'
p344
(lp345
S'54.42'
p346
aS'35.23'
p347
aS'69.60'
p348
asS'TAC'
p349
(lp350
S'45.58'
p351
aS'64.77'
p352
aS'30.40'
p353
assS'MET'
p354
(dp355
S'ATG'
p356
(lp357
S'100.0'
p358
aS'100.0'
p359
aS'100.0'
p360
ass.