(dp1
S'CTT'
p2
(lp3
S'9.70'
p4
aS'5.56'
p5
aS'19.00'
p6
asS'ATG'
p7
(lp8
S'100.0'
p9
aS'100.0'
p10
aS'100.0'
p11
asS'AAG'
p12
(lp13
S'24.56'
p14
aS'21.45'
p15
aS'27.79'
p16
asS'AAA'
p17
(lp18
S'75.44'
p19
aS'78.55'
p20
aS'72.21'
p21
asS'ATC'
p22
(lp23
S'44.37'
p24
aS'65.94'
p25
aS'26.65'
p26
asS'AAC'
p27
(lp28
S'59.13'
p29
aS'82.75'
p30
aS'35.94'
p31
asS'ATA'
p32
(lp33
S'4.43'
p34
aS'0.57'
p35
aS'25.78'
p36
asS'AGG'
p37
(lp38
S'1.54'
p39
aS'0.29'
p40
aS'9.96'
p41
asS'CCT'
p42
(lp43
S'13.71'
p44
aS'11.23'
p45
aS'28.30'
p46
asS'ACT'
p47
(lp48
S'14.85'
p49
aS'29.08'
p50
aS'26.83'
p51
asS'AGC'
p52
(lp53
S'30.04'
p54
aS'24.33'
p55
aS'17.61'
p56
asS'ACA'
p57
(lp58
S'10.52'
p59
aS'4.67'
p60
aS'27.93'
p61
asS'AGA'
p62
(lp63
S'1.75'
p64
aS'0.62'
p65
aS'15.63'
p66
asS'CAT'
p67
(lp68
S'56.80'
p69
aS'29.77'
p70
aS'61.69'
p71
asS'AAT'
p72
(lp73
S'40.87'
p74
aS'17.25'
p75
aS'64.06'
p76
asS'ATT'
p77
(lp78
S'51.20'
p79
aS'33.49'
p80
aS'47.57'
p81
asS'CTG'
p82
(lp83
S'52.79'
p84
aS'76.67'
p85
aS'29.99'
p86
asS'CTA'
p87
(lp88
S'3.09'
p89
aS'0.83'
p90
aS'6.81'
p91
asS'CTC'
p92
(lp93
S'10.40'
p94
aS'8.03'
p95
aS'9.04'
p96
asS'CAC'
p97
(lp98
S'43.20'
p99
aS'70.23'
p100
aS'38.31'
p101
asS'ACG'
p102
(lp103
S'27.81'
p104
aS'12.65'
p105
aS'20.80'
p106
asS'CAA'
p107
(lp108
S'33.40'
p109
aS'18.65'
p110
aS'37.06'
p111
asS'AGT'
p112
(lp113
S'13.96'
p114
aS'4.52'
p115
aS'18.73'
p116
asS'CAG'
p117
(lp118
S'66.60'
p119
aS'81.35'
p120
aS'62.94'
p121
asS'CCG'
p122
(lp123
S'56.47'
p124
aS'71.89'
p125
aS'23.94'
p126
asS'CCC'
p127
(lp128
S'11.19'
p129
aS'1.63'
p130
aS'16.26'
p131
asS'TAG'
p132
(lp133
S'7.36'
p134
aS'2.44'
p135
aS'\xa0'
asS'TAT'
p136
(lp137
S'54.42'
p138
aS'35.23'
p139
aS'69.60'
p140
asS'GGT'
p141
(lp142
S'32.91'
p143
aS'50.84'
p144
aS'31.79'
p145
asS'TGT'
p146
(lp147
S'40.90'
p148
aS'38.85'
p149
aS'55.71'
p150
asS'CGA'
p151
(lp152
S'5.52'
p153
aS'1.07'
p154
aS'12.80'
p155
asS'CCA'
p156
(lp157
S'18.63'
p158
aS'15.25'
p159
aS'31.50'
p160
asS'CGC'
p161
(lp162
S'42.23'
p163
aS'32.97'
p164
aS'21.94'
p165
asS'GAT'
p166
(lp167
S'62.83'
p168
aS'46.05'
p169
aS'70.47'
p170
asS'CGG'
p171
(lp172
S'8.97'
p173
aS'0.80'
p174
aS'13.62'
p175
asS'TTT'
p176
(lp177
S'55.09'
p178
aS'29.08'
p179
aS'67.14'
p180
asS'TGC'
p181
(lp182
S'59.10'
p183
aS'61.15'
p184
aS'44.29'
p185
asS'GGG'
p186
(lp187
S'14.74'
p188
aS'4.36'
p189
aS'18.95'
p190
asS'TGA'
p191
(lp192
S'29.21'
p193
aS'2.44'
p194
aS'\xa0'
asS'GGA'
p195
(lp196
S'9.19'
p197
aS'1.97'
p198
aS'24.75'
p199
asS'TAA'
p200
(lp201
S'63.42'
p202
aS'95.12'
p203
aS'\xa0'
asS'GGC'
p204
(lp205
S'43.17'
p206
aS'42.83'
p207
aS'24.51'
p208
asS'TAC'
p209
(lp210
S'45.58'
p211
aS'64.77'
p212
aS'30.40'
p213
asS'GAG'
p214
(lp215
S'31.67'
p216
aS'24.65'
p217
aS'33.75'
p218
asS'TCG'
p219
(lp220
S'16.88'
p221
aS'7.39'
p222
aS'10.60'
p223
asS'TTA'
p224
(lp225
S'10.99'
p226
aS'3.44'
p227
aS'20.09'
p228
asS'GAC'
p229
(lp230
S'37.17'
p231
aS'53.95'
p232
aS'29.53'
p233
asS'CGT'
p234
(lp235
S'38.99'
p236
aS'64.25'
p237
aS'26.05'
p238
asS'GAA'
p239
(lp240
S'68.33'
p241
aS'75.35'
p242
aS'66.25'
p243
asS'TCA'
p244
(lp245
S'10.83'
p246
aS'4.79'
p247
aS'22.09'
p248
asS'GCA'
p249
(lp250
S'19.63'
p251
aS'24.01'
p252
aS'31.27'
p253
asS'GTA'
p254
(lp255
S'14.86'
p256
aS'19.97'
p257
aS'21.78'
p258
asS'GCC'
p259
(lp260
S'27.62'
p261
aS'16.14'
p262
aS'23.67'
p263
asS'GTC'
p264
(lp265
S'22.48'
p266
aS'13.45'
p267
aS'18.95'
p268
asS'GCG'
p269
(lp270
S'38.23'
p271
aS'32.30'
p272
aS'22.19'
p273
asS'GTG'
p274
(lp275
S'38.92'
p276
aS'26.81'
p277
aS'24.94'
p278
asS'TTC'
p279
(lp280
S'44.91'
p281
aS'70.92'
p282
aS'32.86'
p283
asS'GTT'
p284
(lp285
S'23.74'
p286
aS'39.77'
p287
aS'34.33'
p288
asS'GCT'
p289
(lp290
S'14.52'
p291
aS'27.54'
p292
aS'22.86'
p293
asS'ACC'
p294
(lp295
S'46.83'
p296
aS'53.60'
p297
aS'24.45'
p298
asS'TTG'
p299
(lp300
S'13.02'
p301
aS'5.47'
p302
aS'15.05'
p303
asS'TCC'
p304
(lp305
S'15.02'
p306
aS'26.56'
p307
aS'11.34'
p308
asS'TGG'
p309
(lp310
S'100.0'
p311
aS'100.0'
p312
aS'100.0'
p313
asS'TCT'
p314
(lp315
S'13.26'
p316
aS'32.41'
p317
aS'19.63'
p318
as.